; Function Attrs: nounwind uwtable
define i32 @PQcancelBlocking(ptr noundef %0) local_unnamed_addr #0 {
  %.not.i = icmp eq ptr %0, null
  br i1 %.not.i, label %PQcancelStart.exit.thread, label %2

2:                                                ; preds = %1
  %3 = getelementptr inbounds nuw i8, ptr %0, i64 416
  %4 = load i32, ptr %3, align 8
  switch i32 %4, label %5 [
    i32 1, label %PQcancelStart.exit.thread
    i32 14, label %PQcancelStart.exit
  ]

5:                                                ; preds = %2
  tail call void (ptr, ptr, ...) @libpq_append_conn_error(ptr noundef nonnull %0, ptr noundef nonnull @.str.3) #16
  store i32 1, ptr %3, align 8
  br label %PQcancelStart.exit.thread

PQcancelStart.exit:                               ; preds = %2
  %6 = tail call i32 @pqConnectDBStart(ptr noundef nonnull %0) #16
  %.not = icmp eq i32 %6, 0
  br i1 %.not, label %PQcancelStart.exit.thread, label %7

7:                                                ; preds = %PQcancelStart.exit
  %8 = tail call i32 @pqConnectDBComplete(ptr noundef nonnull %0) #16
  br label %PQcancelStart.exit.thread

PQcancelStart.exit.thread:                        ; preds = %1, %2, %5, %PQcancelStart.exit, %7
  %.0 = phi i32 [ %8, %7 ], [ 0, %PQcancelStart.exit ], [ 0, %5 ], [ 0, %2 ], [ 0, %1 ]
  ret i32 %.0
}